target datalayout = "e-m:e-p270:32:32-p271:32:32-p272:64:64-i64:64-i128:128-f80:128-n8:16:32:64-S128"
target triple = "x86_64-pc-linux-gnu"

@.str = private unnamed_addr constant [23 x i8] c"no further information\00", align 1
@.str.1 = private unnamed_addr constant [18 x i8] c"socket closed: %s\00", align 1
@.str.2 = private unnamed_addr constant [25 x i8] c"java/net/SocketException\00", align 1
@.str.3 = private unnamed_addr constant [31 x i8] c"java/io/InterruptedIOException\00", align 1

; Function Attrs: nounwind uwtable
define void @NET_ThrowNew(ptr noundef %0, i32 noundef %1, ptr noundef %2) #0 {
  %4 = alloca ptr, align 8
  %5 = alloca i32, align 4
  %6 = alloca ptr, align 8
  %7 = alloca [512 x i8], align 16
  store ptr %0, ptr %4, align 8
  store i32 %1, ptr %5, align 4
  store ptr %2, ptr %6, align 8
  %8 = load ptr, ptr %6, align 8
  %9 = icmp ne ptr %8, null
  br i1 %9, label %11, label %10

10:                                               ; preds = %3
  store ptr @.str, ptr %6, align 8
  br label %11

11:                                               ; preds = %10, %3
  %12 = load i32, ptr %5, align 4
  switch i32 %12, label %22 [
    i32 9, label %13
    i32 4, label %19
  ]

13:                                               ; preds = %11
  %14 = getelementptr inbounds [512 x i8], ptr %7, i64 0, i64 0
  %15 = load ptr, ptr %6, align 8
  %16 = call i32 (ptr, i64, ptr, ...) @jio_snprintf(ptr noundef %14, i64 noundef 512, ptr noundef @.str.1, ptr noundef %15)
  %17 = load ptr, ptr %4, align 8
  %18 = getelementptr inbounds [512 x i8], ptr %7, i64 0, i64 0
  call void @JNU_ThrowByName(ptr noundef %17, ptr noundef @.str.2, ptr noundef %18)
  br label %27

19:                                               ; preds = %11
  %20 = load ptr, ptr %4, align 8
  %21 = load ptr, ptr %6, align 8
  call void @JNU_ThrowByName(ptr noundef %20, ptr noundef @.str.3, ptr noundef %21)
  br label %27

22:                                               ; preds = %11
  %23 = load i32, ptr %5, align 4
  %24 = call ptr @__errno_location() #8
  store i32 %23, ptr %24, align 4
  %25 = load ptr, ptr %4, align 8
  %26 = load ptr, ptr %6, align 8
  call void @JNU_ThrowByNameWithLastError(ptr noundef %25, ptr noundef @.str.2, ptr noundef %26)
  br label %27

27:                                               ; preds = %22, %19, %13
  ret void
}