; Function Attrs: nounwind uwtable
define void @NET_ThrowNew(ptr noundef %0, i32 noundef %1, ptr noundef %2) local_unnamed_addr #0 {
  %4 = alloca [512 x i8], align 16
  %.not = icmp eq ptr %2, null
  %spec.store.select = select i1 %.not, ptr @.str, ptr %2
  switch i32 %1, label %8 [
    i32 9, label %5
    i32 4, label %7
  ]

5:                                                ; preds = %3
  %6 = call i32 (ptr, i64, ptr, ...) @jio_snprintf(ptr noundef nonnull %4, i64 noundef 512, ptr noundef nonnull @.str.1, ptr noundef nonnull %spec.store.select) #13
  call void @JNU_ThrowByName(ptr noundef %0, ptr noundef nonnull @.str.2, ptr noundef nonnull %4) #13
  br label %10

7:                                                ; preds = %3
  tail call void @JNU_ThrowByName(ptr noundef %0, ptr noundef nonnull @.str.3, ptr noundef nonnull %spec.store.select) #13
  br label %10

8:                                                ; preds = %3
  %9 = tail call ptr @__errno_location() #14
  store i32 %1, ptr %9, align 4
  tail call void @JNU_ThrowByNameWithLastError(ptr noundef %0, ptr noundef nonnull @.str.2, ptr noundef nonnull %spec.store.select) #13
  br label %10

10:                                               ; preds = %8, %7, %5
  ret void
}